(lp0
ccopy_reg
_reconstructor
p1
(cContact
Contact
p2
c__builtin__
object
p3
Ntp4
Rp5
(dp6
Vname
p7
Vtest1
p8
sVcontact_id
p9
L376049L
sVphones
p10
(lp11
V111
p12
asbag1
(g2
g3
Ntp13
Rp14
(dp15
g7
Vtest2
p16
sg9
L355517L
sg10
(lp17
V222
p18
asbag1
(g2
g3
Ntp19
Rp20
(dp21
g7
Vtest3
p22
sg9
L600656L
sg10
(lp23
V333
p24
asbag1
(g2
g3
Ntp25
Rp26
(dp27
g7
Vasdf
p28
sg9
L4L
sg10
(lp29
V234
p30
asba.